target datalayout = "e-m:e-p270:32:32-p271:32:32-p272:64:64-i64:64-i128:128-f80:128-n8:16:32:64-S128"
target triple = "x86_64-pc-linux-gnu"

%class.history_t = type { float, %"class.std::vector", float, %"class.std::vector" }
%"class.std::vector" = type { %"struct.std::_Vector_base" }
%"struct.std::_Vector_base" = type { %"struct.std::_Vector_base<float, std::allocator<float>>::_Vector_impl" }
%"struct.std::_Vector_base<float, std::allocator<float>>::_Vector_impl" = type { %"struct.std::_Vector_base<float, std::allocator<float>>::_Vector_impl_data" }
%"struct.std::_Vector_base<float, std::allocator<float>>::_Vector_impl_data" = type { ptr, ptr, ptr }
%class.ekinstate_t = type <{ i8, [3 x i8], i32, ptr, ptr, ptr, [3 x [3 x float]], [4 x i8], %"class.std::vector.0", %"class.std::vector.0", %"class.std::vector.0", float, float, i8, [7 x i8] }>
%"class.std::vector.0" = type { %"struct.std::_Vector_base.1" }
%"struct.std::_Vector_base.1" = type { %"struct.std::_Vector_base<double, std::allocator<double>>::_Vector_impl" }
%"struct.std::_Vector_base<double, std::allocator<double>>::_Vector_impl" = type { %"struct.std::_Vector_base<double, std::allocator<double>>::_Vector_impl_data" }
%"struct.std::_Vector_base<double, std::allocator<double>>::_Vector_impl_data" = type { ptr, ptr, ptr }
%"class.std::__shared_count" = type { ptr }
%class.t_state = type { i32, i32, i32, i32, i32, i32, %"struct.gmx::EnumerationArray", [3 x [3 x float]], [3 x [3 x float]], [3 x [3 x float]], [3 x [3 x float]], [3 x [3 x float]], [3 x [3 x float]], %"class.std::vector.0", %"class.std::vector.0", %"class.std::vector.0", %"class.std::vector.0", %"class.std::vector.0", double, float, float, %"class.gmx::PaddedVector", %"class.gmx::PaddedVector", %"class.gmx::PaddedVector", %class.ekinstate_t, %class.history_t, ptr, %"class.std::shared_ptr.136", i32, i32, %"class.std::vector.139", %"class.std::vector.0" }
%"struct.gmx::EnumerationArray" = type { [7 x float] }
%"class.gmx::PaddedVector" = type { %"class.std::vector.133", %"class.__gnu_cxx::__normal_iterator.135" }
%"class.std::vector.133" = type { %"struct.std::_Vector_base.134" }
%"struct.std::_Vector_base.134" = type { %"struct.std::_Vector_base<gmx::BasicVector<float>, gmx::Allocator<gmx::BasicVector<float>, gmx::HostAllocationPolicy>>::_Vector_impl" }
%"struct.std::_Vector_base<gmx::BasicVector<float>, gmx::Allocator<gmx::BasicVector<float>, gmx::HostAllocationPolicy>>::_Vector_impl" = type { %"class.gmx::Allocator", %"struct.std::_Vector_base<gmx::BasicVector<float>, gmx::Allocator<gmx::BasicVector<float>, gmx::HostAllocationPolicy>>::_Vector_impl_data" }
%"class.gmx::Allocator" = type { %"class.gmx::HostAllocationPolicy" }
%"class.gmx::HostAllocationPolicy" = type { i32 }
%"struct.std::_Vector_base<gmx::BasicVector<float>, gmx::Allocator<gmx::BasicVector<float>, gmx::HostAllocationPolicy>>::_Vector_impl_data" = type { ptr, ptr, ptr }
%"class.__gnu_cxx::__normal_iterator.135" = type { ptr }
%"class.std::shared_ptr.136" = type { %"class.std::__shared_ptr.137" }
%"class.std::__shared_ptr.137" = type { ptr, %"class.std::__shared_count" }
%"class.std::vector.139" = type { %"struct.std::_Vector_base.140" }
%"struct.std::_Vector_base.140" = type { %"struct.std::_Vector_base<int, std::allocator<int>>::_Vector_impl" }
%"struct.std::_Vector_base<int, std::allocator<int>>::_Vector_impl" = type { %"struct.std::_Vector_base<int, std::allocator<int>>::_Vector_impl_data" }
%"struct.std::_Vector_base<int, std::allocator<int>>::_Vector_impl_data" = type { ptr, ptr, ptr }

; Function Attrs: mustprogress nounwind uwtable
define linkonce_odr noundef i32 @_Z18enumValueToBitMaskI10StateEntryEiT_(i32 noundef %0) #0 comdat {
  %2 = alloca i32, align 4
  store i32 %0, ptr %2, align 4
  %3 = load i32, ptr %2, align 4
  %4 = shl i32 1, %3
  ret i32 %4
}

; Function Attrs: mustprogress uwtable
define linkonce_odr noundef zeroext i1 @_ZNK7t_state8hasEntryE10StateEntry(ptr noundef nonnull align 8 dereferenceable(832) %0, i32 noundef %1) #1 comdat align 2 {
  %3 = alloca ptr, align 8
  %4 = alloca i32, align 4
  store ptr %0, ptr %3, align 8
  store i32 %1, ptr %4, align 4
  %5 = load ptr, ptr %3, align 8
  %6 = getelementptr inbounds %class.t_state, ptr %5, i32 0, i32 1
  %7 = load i32, ptr %6, align 4
  %8 = load i32, ptr %4, align 4
  %9 = call noundef i32 @_Z18enumValueToBitMaskI10StateEntryEiT_(i32 noundef %8)
  %10 = and i32 %7, %9
  %11 = icmp ne i32 %10, 0
  ret i1 %11
}

; Function Attrs: mustprogress uwtable
define void @_ZN7t_state14changeNumAtomsEi(ptr noundef nonnull align 8 dereferenceable(832) %0, i32 noundef %1) #1 align 2 {
  %3 = alloca ptr, align 8
  %4 = alloca i32, align 4
  store ptr %0, ptr %3, align 8
  store i32 %1, ptr %4, align 4
  %5 = load ptr, ptr %3, align 8
  %6 = load i32, ptr %4, align 4
  %7 = getelementptr inbounds %class.t_state, ptr %5, i32 0, i32 0
  store i32 %6, ptr %7, align 8
  %8 = call noundef zeroext i1 @_ZNK7t_state8hasEntryE10StateEntry(ptr noundef nonnull align 8 dereferenceable(832) %5, i32 noundef 7)
  br i1 %8, label %9, label %13

9:                                                ; preds = %2
  %10 = getelementptr inbounds %class.t_state, ptr %5, i32 0, i32 21
  %11 = load i32, ptr %4, align 4
  %12 = sext i32 %11 to i64
  call void @_ZN3gmx12PaddedVectorINS_11BasicVectorIfEENS_9AllocatorIS2_NS_20HostAllocationPolicyEEEE17resizeWithPaddingEl(ptr noundef nonnull align 8 dereferenceable(40) %10, i64 noundef %12)
  br label %13

13:                                               ; preds = %9, %2
  %14 = call noundef zeroext i1 @_ZNK7t_state8hasEntryE10StateEntry(ptr noundef nonnull align 8 dereferenceable(832) %5, i32 noundef 8)
  br i1 %14, label %15, label %19

15:                                               ; preds = %13
  %16 = getelementptr inbounds %class.t_state, ptr %5, i32 0, i32 22
  %17 = load i32, ptr %4, align 4
  %18 = sext i32 %17 to i64
  call void @_ZN3gmx12PaddedVectorINS_11BasicVectorIfEENS_9AllocatorIS2_NS_20HostAllocationPolicyEEEE17resizeWithPaddingEl(ptr noundef nonnull align 8 dereferenceable(40) %16, i64 noundef %18)
  br label %19

19:                                               ; preds = %15, %13
  %20 = call noundef zeroext i1 @_ZNK7t_state8hasEntryE10StateEntry(ptr noundef nonnull align 8 dereferenceable(832) %5, i32 noundef 10)
  br i1 %20, label %21, label %25

21:                                               ; preds = %19
  %22 = getelementptr inbounds %class.t_state, ptr %5, i32 0, i32 23
  %23 = load i32, ptr %4, align 4
  %24 = sext i32 %23 to i64
  call void @_ZN3gmx12PaddedVectorINS_11BasicVectorIfEENS_9AllocatorIS2_NS_20HostAllocationPolicyEEEE17resizeWithPaddingEl(ptr noundef nonnull align 8 dereferenceable(40) %22, i64 noundef %24)
  br label %25

25:                                               ; preds = %21, %19
  ret void
}

; Function Attrs: mustprogress uwtable
define void @_ZN7t_state8setFlagsEi(ptr noundef nonnull align 8 dereferenceable(832) %0, i32 noundef %1) #1 align 2 {
  %3 = alloca ptr, align 8
  %4 = alloca i32, align 4
  store ptr %0, ptr %3, align 8
  store i32 %1, ptr %4, align 4
  %5 = load ptr, ptr %3, align 8
  %6 = load i32, ptr %4, align 4
  %7 = getelementptr inbounds %class.t_state, ptr %5, i32 0, i32 1
  store i32 %6, ptr %7, align 4
  %8 = getelementptr inbounds %class.t_state, ptr %5, i32 0, i32 0
  %9 = load i32, ptr %8, align 8
  call void @_ZN7t_state14changeNumAtomsEi(ptr noundef nonnull align 8 dereferenceable(832) %5, i32 noundef %9)
  ret void
}