; Function Attrs: mustprogress uwtable
define void @_ZN7t_state8setFlagsEi(ptr noundef nonnull align 8 dereferenceable(832) %0, i32 noundef %1) local_unnamed_addr #4 align 2 {
  %3 = getelementptr inbounds i8, ptr %0, i64 4
  store i32 %1, ptr %3, align 4
  %4 = load i32, ptr %0, align 8
  %5 = and i32 %1, 128
  %.not.i = icmp eq i32 %5, 0
  br i1 %.not.i, label %9, label %6

6:                                                ; preds = %2
  %7 = getelementptr inbounds i8, ptr %0, i64 408
  %8 = sext i32 %4 to i64
  tail call void @_ZN3gmx12PaddedVectorINS_11BasicVectorIfEENS_9AllocatorIS2_NS_20HostAllocationPolicyEEEE17resizeWithPaddingEl(ptr noundef nonnull align 8 dereferenceable(40) %7, i64 noundef %8)
  %.pre.i = load i32, ptr %3, align 4
  br label %9

9:                                                ; preds = %6, %2
  %10 = phi i32 [ %.pre.i, %6 ], [ %1, %2 ]
  %11 = and i32 %10, 256
  %.not4.i = icmp eq i32 %11, 0
  br i1 %.not4.i, label %15, label %12

12:                                               ; preds = %9
  %13 = getelementptr inbounds i8, ptr %0, i64 448
  %14 = sext i32 %4 to i64
  tail call void @_ZN3gmx12PaddedVectorINS_11BasicVectorIfEENS_9AllocatorIS2_NS_20HostAllocationPolicyEEEE17resizeWithPaddingEl(ptr noundef nonnull align 8 dereferenceable(40) %13, i64 noundef %14)
  %.pre6.i = load i32, ptr %3, align 4
  br label %15

15:                                               ; preds = %12, %9
  %16 = phi i32 [ %.pre6.i, %12 ], [ %10, %9 ]
  %17 = and i32 %16, 1024
  %.not5.i = icmp eq i32 %17, 0
  br i1 %.not5.i, label %_ZN7t_state14changeNumAtomsEi.exit, label %18

18:                                               ; preds = %15
  %19 = getelementptr inbounds i8, ptr %0, i64 488
  %20 = sext i32 %4 to i64
  tail call void @_ZN3gmx12PaddedVectorINS_11BasicVectorIfEENS_9AllocatorIS2_NS_20HostAllocationPolicyEEEE17resizeWithPaddingEl(ptr noundef nonnull align 8 dereferenceable(40) %19, i64 noundef %20)
  br label %_ZN7t_state14changeNumAtomsEi.exit

_ZN7t_state14changeNumAtomsEi.exit:               ; preds = %15, %18
  ret void
}